; ModuleID = '36/1148.c'
source_filename = "36/1148.c"
target datalayout = "e-m:e-p270:32:32-p271:32:32-p272:64:64-i64:64-f80:128-n8:16:32:64-S128"
target triple = "x86_64-pc-linux-gnu"

@.str = private unnamed_addr constant [6 x i8] c"%s %s\00", align 1
@.str.1 = private unnamed_addr constant [3 x i8] c"NO\00", align 1
@.str.2 = private unnamed_addr constant [4 x i8] c"YES\00", align 1

; Function Attrs: noinline nounwind uwtable
define dso_local i32 @main() #0 {
  %1 = alloca i32, align 4
  %2 = alloca [10000 x i8], align 16
  %3 = alloca [10000 x i8], align 16
  %4 = alloca i8, align 1
  %5 = alloca i32, align 4
  %6 = alloca i32, align 4
  %7 = alloca i32, align 4
  %8 = alloca i32, align 4
  store i32 0, i32* %1, align 4
  %9 = call i32 (i8*, ...) @__isoc99_scanf(i8* getelementptr inbounds ([6 x i8], [6 x i8]* @.str, i64 0, i64 0), [10000 x i8]* %2, [10000 x i8]* %3)
  %10 = getelementptr inbounds [10000 x i8], [10000 x i8]* %2, i64 0, i64 0
  %11 = call i64 @strlen(i8* %10) #3
  %12 = trunc i64 %11 to i32
  store i32 %12, i32* %7, align 4
  %13 = getelementptr inbounds [10000 x i8], [10000 x i8]* %3, i64 0, i64 0
  %14 = call i64 @strlen(i8* %13) #3
  %15 = trunc i64 %14 to i32
  store i32 %15, i32* %8, align 4
  %16 = load i32, i32* %7, align 4
  %17 = load i32, i32* %8, align 4
  %18 = icmp ne i32 %16, %17
  br i1 %18, label %19, label %21

19:                                               ; preds = %0
  %20 = call i32 (i8*, ...) @printf(i8* getelementptr inbounds ([3 x i8], [3 x i8]* @.str.1, i64 0, i64 0))
  br label %21

21:                                               ; preds = %19, %0
  %22 = load i32, i32* %7, align 4
  %23 = load i32, i32* %8, align 4
  %24 = icmp eq i32 %22, %23
  br i1 %24, label %25, label %49

25:                                               ; preds = %21
  %26 = load i32, i32* %7, align 4
  %27 = icmp eq i32 %26, 1
  br i1 %27, label %28, label %49

28:                                               ; preds = %25
  %29 = getelementptr inbounds [10000 x i8], [10000 x i8]* %2, i64 0, i64 0
  %30 = load i8, i8* %29, align 16
  %31 = sext i8 %30 to i32
  %32 = getelementptr inbounds [10000 x i8], [10000 x i8]* %3, i64 0, i64 0
  %33 = load i8, i8* %32, align 16
  %34 = sext i8 %33 to i32
  %35 = icmp eq i32 %31, %34
  br i1 %35, label %36, label %38

36:                                               ; preds = %28
  %37 = call i32 (i8*, ...) @printf(i8* getelementptr inbounds ([4 x i8], [4 x i8]* @.str.2, i64 0, i64 0))
  br label %38

38:                                               ; preds = %36, %28
  %39 = getelementptr inbounds [10000 x i8], [10000 x i8]* %2, i64 0, i64 0
  %40 = load i8, i8* %39, align 16
  %41 = sext i8 %40 to i32
  %42 = getelementptr inbounds [10000 x i8], [10000 x i8]* %3, i64 0, i64 0
  %43 = load i8, i8* %42, align 16
  %44 = sext i8 %43 to i32
  %45 = icmp ne i32 %41, %44
  br i1 %45, label %46, label %48

46:                                               ; preds = %38
  %47 = call i32 (i8*, ...) @printf(i8* getelementptr inbounds ([3 x i8], [3 x i8]* @.str.1, i64 0, i64 0))
  br label %48

48:                                               ; preds = %46, %38
  br label %49

49:                                               ; preds = %48, %25, %21
  %50 = load i32, i32* %7, align 4
  %51 = load i32, i32* %8, align 4
  %52 = icmp eq i32 %50, %51
  br i1 %52, label %53, label %170

53:                                               ; preds = %49
  %54 = load i32, i32* %7, align 4
  %55 = icmp sgt i32 %54, 1
  br i1 %55, label %56, label %170

56:                                               ; preds = %53
  %57 = load i32, i32* %7, align 4
  %58 = sub nsw i32 %57, 1
  store i32 %58, i32* %6, align 4
  br label %59

59:                                               ; preds = %103, %56
  %60 = load i32, i32* %6, align 4
  %61 = icmp sgt i32 %60, 0
  br i1 %61, label %62, label %106

62:                                               ; preds = %59
  store i32 0, i32* %5, align 4
  br label %63

63:                                               ; preds = %99, %62
  %64 = load i32, i32* %5, align 4
  %65 = load i32, i32* %6, align 4
  %66 = icmp slt i32 %64, %65
  br i1 %66, label %67, label %102

67:                                               ; preds = %63
  %68 = load i32, i32* %5, align 4
  %69 = sext i32 %68 to i64
  %70 = getelementptr inbounds [10000 x i8], [10000 x i8]* %2, i64 0, i64 %69
  %71 = load i8, i8* %70, align 1
  %72 = sext i8 %71 to i32
  %73 = load i32, i32* %5, align 4
  %74 = add nsw i32 %73, 1
  %75 = sext i32 %74 to i64
  %76 = getelementptr inbounds [10000 x i8], [10000 x i8]* %2, i64 0, i64 %75
  %77 = load i8, i8* %76, align 1
  %78 = sext i8 %77 to i32
  %79 = icmp sgt i32 %72, %78
  br i1 %79, label %80, label %98

80:                                               ; preds = %67
  %81 = load i32, i32* %5, align 4
  %82 = sext i32 %81 to i64
  %83 = getelementptr inbounds [10000 x i8], [10000 x i8]* %2, i64 0, i64 %82
  %84 = load i8, i8* %83, align 1
  store i8 %84, i8* %4, align 1
  %85 = load i32, i32* %5, align 4
  %86 = add nsw i32 %85, 1
  %87 = sext i32 %86 to i64
  %88 = getelementptr inbounds [10000 x i8], [10000 x i8]* %2, i64 0, i64 %87
  %89 = load i8, i8* %88, align 1
  %90 = load i32, i32* %5, align 4
  %91 = sext i32 %90 to i64
  %92 = getelementptr inbounds [10000 x i8], [10000 x i8]* %2, i64 0, i64 %91
  store i8 %89, i8* %92, align 1
  %93 = load i8, i8* %4, align 1
  %94 = load i32, i32* %5, align 4
  %95 = add nsw i32 %94, 1
  %96 = sext i32 %95 to i64
  %97 = getelementptr inbounds [10000 x i8], [10000 x i8]* %2, i64 0, i64 %96
  store i8 %93, i8* %97, align 1
  br label %98

98:                                               ; preds = %80, %67
  br label %99

99:                                               ; preds = %98
  %100 = load i32, i32* %5, align 4
  %101 = add nsw i32 %100, 1
  store i32 %101, i32* %5, align 4
  br label %63

102:                                              ; preds = %63
  br label %103

103:                                              ; preds = %102
  %104 = load i32, i32* %6, align 4
  %105 = add nsw i32 %104, -1
  store i32 %105, i32* %6, align 4
  br label %59

106:                                              ; preds = %59
  %107 = load i32, i32* %8, align 4
  %108 = sub nsw i32 %107, 1
  store i32 %108, i32* %6, align 4
  br label %109

109:                                              ; preds = %153, %106
  %110 = load i32, i32* %6, align 4
  %111 = icmp sgt i32 %110, 0
  br i1 %111, label %112, label %156

112:                                              ; preds = %109
  store i32 0, i32* %5, align 4
  br label %113

113:                                              ; preds = %149, %112
  %114 = load i32, i32* %5, align 4
  %115 = load i32, i32* %6, align 4
  %116 = icmp slt i32 %114, %115
  br i1 %116, label %117, label %152

117:                                              ; preds = %113
  %118 = load i32, i32* %5, align 4
  %119 = sext i32 %118 to i64
  %120 = getelementptr inbounds [10000 x i8], [10000 x i8]* %3, i64 0, i64 %119
  %121 = load i8, i8* %120, align 1
  %122 = sext i8 %121 to i32
  %123 = load i32, i32* %5, align 4
  %124 = add nsw i32 %123, 1
  %125 = sext i32 %124 to i64
  %126 = getelementptr inbounds [10000 x i8], [10000 x i8]* %3, i64 0, i64 %125
  %127 = load i8, i8* %126, align 1
  %128 = sext i8 %127 to i32
  %129 = icmp sgt i32 %122, %128
  br i1 %129, label %130, label %148

130:                                              ; preds = %117
  %131 = load i32, i32* %5, align 4
  %132 = sext i32 %131 to i64
  %133 = getelementptr inbounds [10000 x i8], [10000 x i8]* %3, i64 0, i64 %132
  %134 = load i8, i8* %133, align 1
  store i8 %134, i8* %4, align 1
  %135 = load i32, i32* %5, align 4
  %136 = add nsw i32 %135, 1
  %137 = sext i32 %136 to i64
  %138 = getelementptr inbounds [10000 x i8], [10000 x i8]* %3, i64 0, i64 %137
  %139 = load i8, i8* %138, align 1
  %140 = load i32, i32* %5, align 4
  %141 = sext i32 %140 to i64
  %142 = getelementptr inbounds [10000 x i8], [10000 x i8]* %3, i64 0, i64 %141
  store i8 %139, i8* %142, align 1
  %143 = load i8, i8* %4, align 1
  %144 = load i32, i32* %5, align 4
  %145 = add nsw i32 %144, 1
  %146 = sext i32 %145 to i64
  %147 = getelementptr inbounds [10000 x i8], [10000 x i8]* %3, i64 0, i64 %146
  store i8 %143, i8* %147, align 1
  br label %148

148:                                              ; preds = %130, %117
  br label %149

149:                                              ; preds = %148
  %150 = load i32, i32* %5, align 4
  %151 = add nsw i32 %150, 1
  store i32 %151, i32* %5, align 4
  br label %113

152:                                              ; preds = %113
  br label %153

153:                                              ; preds = %152
  %154 = load i32, i32* %6, align 4
  %155 = add nsw i32 %154, -1
  store i32 %155, i32* %6, align 4
  br label %109

156:                                              ; preds = %109
  %157 = getelementptr inbounds [10000 x i8], [10000 x i8]* %2, i64 0, i64 0
  %158 = getelementptr inbounds [10000 x i8], [10000 x i8]* %3, i64 0, i64 0
  %159 = call i32 @strcmp(i8* %157, i8* %158) #3
  store i32 %159, i32* %7, align 4
  %160 = load i32, i32* %7, align 4
  %161 = icmp eq i32 %160, 0
  br i1 %161, label %162, label %164

162:                                              ; preds = %156
  %163 = call i32 (i8*, ...) @printf(i8* getelementptr inbounds ([4 x i8], [4 x i8]* @.str.2, i64 0, i64 0))
  br label %164

164:                                              ; preds = %162, %156
  %165 = load i32, i32* %7, align 4
  %166 = icmp eq i32 %165, 1
  br i1 %166, label %167, label %169

167:                                              ; preds = %164
  %168 = call i32 (i8*, ...) @printf(i8* getelementptr inbounds ([3 x i8], [3 x i8]* @.str.1, i64 0, i64 0))
  br label %169

169:                                              ; preds = %167, %164
  br label %170

170:                                              ; preds = %169, %53, %49
  ret i32 0
}

declare dso_local i32 @__isoc99_scanf(i8*, ...) #1

; Function Attrs: nounwind readonly
declare dso_local i64 @strlen(i8*) #2

declare dso_local i32 @printf(i8*, ...) #1

; Function Attrs: nounwind readonly
declare dso_local i32 @strcmp(i8*, i8*) #2


!llvm.module.flags = !{!0}
!llvm.ident = !{!1}

!0 = !{i32 1, !"wchar_size", i32 4}
!1 = !{!"clang version 10.0.0-4ubuntu1 "}
